; Function Attrs: mustprogress uwtable
define noundef i32 @_ZN8proxygen11HTTP1xCodec15onChunkHeaderCBEPNS_11http_parserE(ptr nocapture noundef readonly %parser) #3 align 2 personality ptr @__gxx_personality_v0 {
entry:
  %data = getelementptr inbounds i8, ptr %parser, i64 24
  %0 = load ptr, ptr %data, align 8
  %content_length = getelementptr inbounds i8, ptr %parser, i64 8
  %1 = load i64, ptr %content_length, align 8
  %call25 = invoke noundef i32 @_ZN8proxygen11HTTP1xCodec13onChunkHeaderEm(ptr noundef nonnull align 8 dereferenceable(428) %0, i64 noundef %1)
          to label %return unwind label %lpad23

lpad23:                                           ; preds = %entry
  %2 = landingpad { ptr, i32 }
          catch ptr @_ZTISt9exception
  %3 = extractvalue { ptr, i32 } %2, 1
  %4 = tail call i32 @llvm.eh.typeid.for(ptr nonnull @_ZTISt9exception) #25
  %matches = icmp eq i32 %3, %4
  br i1 %matches, label %catch, label %eh.resume

catch:                                            ; preds = %lpad23
  %5 = extractvalue { ptr, i32 } %2, 0
  %6 = tail call ptr @__cxa_begin_catch(ptr %5) #25
  %vtable = load ptr, ptr %6, align 8
  %vfn = getelementptr inbounds i8, ptr %vtable, i64 16
  %7 = load ptr, ptr %vfn, align 8
  %call26 = tail call noundef ptr %7(ptr noundef nonnull align 8 dereferenceable(8) %6) #25
  invoke void @_ZN8proxygen11HTTP1xCodec13onParserErrorEPKc(ptr noundef nonnull align 8 dereferenceable(428) %0, ptr noundef %call26)
          to label %invoke.cont28 unwind label %lpad27

invoke.cont28:                                    ; preds = %catch
  tail call void @__cxa_end_catch()
  br label %return

lpad27:                                           ; preds = %catch
  %8 = landingpad { ptr, i32 }
          cleanup
  invoke void @__cxa_end_catch()
          to label %eh.resume unwind label %terminate.lpad

return:                                           ; preds = %entry, %invoke.cont28
  %retval.0 = phi i32 [ 1, %invoke.cont28 ], [ 0, %entry ]
  ret i32 %retval.0

eh.resume:                                        ; preds = %lpad27, %lpad23
  %lpad.val32.merged = phi { ptr, i32 } [ %8, %lpad27 ], [ %2, %lpad23 ]
  resume { ptr, i32 } %lpad.val32.merged

terminate.lpad:                                   ; preds = %lpad27
  %9 = landingpad { ptr, i32 }
          catch ptr null
  %10 = extractvalue { ptr, i32 } %9, 0
  tail call void @__clang_call_terminate(ptr %10) #26
  unreachable
}